(dp0
S' rastaman'
p1
(lp2
V 61557
p3
aV 76603
p4
aV 76117
p5
aV 55377
p6
aV 47769
p7
aV 73564
p8
aV 40475
p9
aV 76666
p10
aV 61348
p11
aV 49854
p12
asS' dmbfrat420beers'
p13
(lp14
V 19142
p15
aV 7004
p16
aV 51099
p17
aV 72995
p18
aV 2884
p19
aV 67810
p20
aV 63357
p21
aV 14700
p22
aV 40378
p23
aV 1273
p24
asS' cavedave'
p25
(lp26
V 16833
p27
aV 35234
p28
aV 31491
p29
aV 43596
p30
aV 27380
p31
aV 59624
p32
aV 33117
p33
aV 15937
p34
aV 1656
p35
aV 64413
p36
asS' JohnnyDuvel'
p37
(lp38
V 1223
p39
aV 36051
p40
aV 18688
p41
aV 27830
p42
aV 18140
p43
aV 34144
p44
aV 63618
p45
aV 32583
p46
aV 4756
p47
aV 70325
p48
asS' jdoncbus'
p49
(lp50
V 10438
p51
aV 23603
p52
aV 76555
p53
aV 41000
p54
aV 31142
p55
aV 50439
p56
aV 24312
p57
aV 23496
p58
aV 17320
p59
aV 50464
p60
asS' clarkm04'
p61
(lp62
V 36582
p63
aV 21733
p64
aV 41056
p65
aV 11848
p66
aV 30713
p67
aV 49893
p68
aV 39475
p69
aV 60673
p70
aV 60061
p71
aV 4900
p72
asS' Phelps'
p73
(lp74
V 29059
p75
aV 72253
p76
aV 49961
p77
aV 57990
p78
aV 71107
p79
aV 60556
p80
aV 5715
p81
aV 40216
p82
aV 9608
p83
aV 33218
p84
asS' Graham21'
p85
(lp86
V 71050
p87
aV 71410
p88
aV 49254
p89
aV 36600
p90
aV 75999
p91
aV 44364
p92
aV 46383
p93
aV 75656
p94
aV 70054
p95
aV 24108
p96
asS' twiggamortis420'
p97
(lp98
V 74936
p99
aV 31422
p100
aV 6539
p101
aV 5608
p102
aV 49773
p103
aV 73162
p104
aV 65190
p105
aV 72168
p106
aV 23130
p107
aV 76931
p108
asS' nickynick'
p109
(lp110
V 67577
p111
aV 41640
p112
aV 73723
p113
aV 47187
p114
aV 68521
p115
aV 26627
p116
aV 23296
p117
aV 10067
p118
aV 73843
p119
aV 31325
p120
asS' SERENGETI'
p121
(lp122
V 19240
p123
aV 11914
p124
aV 28157
p125
aV 33068
p126
aV 70854
p127
aV 17490
p128
aV 6794
p129
aV 42801
p130
aV 70529
p131
aV 1004
p132
asS' weeare138'
p133
(lp134
V 47713
p135
aV 45742
p136
aV 54188
p137
aV 30230
p138
aV 32463
p139
aV 54799
p140
aV 72772
p141
ag82
aV 34266
p142
aV 74948
p143
asS' Roderick'
p144
(lp145
V 62689
p146
aV 31663
p147
aV 28470
p148
aV 26315
p149
aV 17611
p150
aV 10418
p151
aV 17462
p152
aV 9199
p153
aV 12594
p154
aV 66457
p155
asS' t8s8l8'
p156
(lp157
V 72238
p158
aV 76825
p159
aV 55254
p160
aV 46834
p161
aV 76156
p162
aV 58831
p163
aV 3663
p164
aV 38481
p165
aV 16837
p166
aV 59457
p167
asS' bronco94'
p168
(lp169
V 54512
p170
aV 73297
p171
aV 44307
p172
aV 66337
p173
aV 24273
p174
aV 70341
p175
aV 61615
p176
aV 31044
p177
aV 7738
p178
aV 60149
p179
asS' uabigdaz'
p180
(lp181
V 72188
p182
aV 25629
p183
aV 71352
p184
aV 17552
p185
aV 16285
p186
aV 51807
p187
aV 15469
p188
aV 75082
p189
aV 73218
p190
aV 25437
p191
asS' craytonic'
p192
(lp193
V 74703
p194
aV 67185
p195
aV 17928
p196
aV 51561
p197
aV 60955
p198
aV 44177
p199
aV 26604
p200
aV 52964
p201
aV 73075
p202
aV 60676
p203
asS' mikesgroove'
p204
(lp205
V 61500
p206
aV 74797
p207
aV 8973
p208
aV 38831
p209
aV 67313
p210
aV 59297
p211
aV 59207
p212
aV 66697
p213
aV 36352
p214
aV 55454
p215
asS' linnet'
p216
(lp217
V 16141
p218
aV 76848
p219
aV 7178
p220
aV 65686
p221
aV 15351
p222
aV 56064
p223
aV 20975
p224
aV 34687
p225
aV 60841
p226
aV 66955
p227
asS' kkrez'
p228
(lp229
V 63632
p230
aV 66606
p231
aV 62496
p232
aV 35230
p233
aV 51537
p234
aV 77158
p235
aV 74465
p236
aV 59875
p237
aV 56249
p238
aV 70785
p239
as.